target datalayout = "e-m:e-p270:32:32-p271:32:32-p272:64:64-i64:64-i128:128-f80:128-n8:16:32:64-S128"
target triple = "x86_64-pc-linux-gnu"

%"struct.std::array.289" = type { [5 x i32] }

@constinit = private constant [5 x i32] [i32 1, i32 1, i32 1, i32 2, i32 2], align 4
@constinit.3 = private constant [5 x i32] [i32 2, i32 1, i32 2, i32 2, i32 1], align 4
@constinit.4 = private constant [5 x i32] [i32 1, i32 2, i32 1, i32 1, i32 2], align 4
@constinit.5 = private constant [5 x i32] [i32 2, i32 2, i32 2, i32 1, i32 1], align 4

; Function Attrs: mustprogress nounwind uwtable
define dso_local void @_ZNK4llvm15TargetInstrInfo28getReassociateOperandIndicesERKNS_12MachineInstrEjRSt5arrayIjLm5EE(ptr noundef nonnull align 8 dereferenceable(80) %0, ptr noundef nonnull align 8 dereferenceable(70) %1, i32 noundef %2, ptr noundef nonnull align 4 dereferenceable(20) %3) unnamed_addr #1 align 2 {
  %5 = alloca ptr, align 8
  %6 = alloca ptr, align 8
  %7 = alloca i32, align 4
  %8 = alloca ptr, align 8
  %9 = alloca %"struct.std::array.289", align 4
  %10 = alloca %"struct.std::array.289", align 4
  %11 = alloca %"struct.std::array.289", align 4
  %12 = alloca %"struct.std::array.289", align 4
  store ptr %0, ptr %5, align 8
  store ptr %1, ptr %6, align 8
  store i32 %2, ptr %7, align 4
  store ptr %3, ptr %8, align 8
  %13 = load i32, ptr %7, align 4
  switch i32 %13, label %26 [
    i32 0, label %14
    i32 1, label %17
    i32 2, label %20
    i32 3, label %23
  ]

14:                                               ; preds = %4
  %15 = getelementptr inbounds nuw %"struct.std::array.289", ptr %9, i32 0, i32 0
  call void @llvm.memcpy.p0.p0.i64(ptr align 4 %15, ptr align 4 @constinit, i64 20, i1 false)
  %16 = load ptr, ptr %8, align 8
  call void @llvm.memcpy.p0.p0.i64(ptr align 4 %16, ptr align 4 %9, i64 20, i1 false)
  br label %27

17:                                               ; preds = %4
  %18 = getelementptr inbounds nuw %"struct.std::array.289", ptr %10, i32 0, i32 0
  call void @llvm.memcpy.p0.p0.i64(ptr align 4 %18, ptr align 4 @constinit.3, i64 20, i1 false)
  %19 = load ptr, ptr %8, align 8
  call void @llvm.memcpy.p0.p0.i64(ptr align 4 %19, ptr align 4 %10, i64 20, i1 false)
  br label %27

20:                                               ; preds = %4
  %21 = getelementptr inbounds nuw %"struct.std::array.289", ptr %11, i32 0, i32 0
  call void @llvm.memcpy.p0.p0.i64(ptr align 4 %21, ptr align 4 @constinit.4, i64 20, i1 false)
  %22 = load ptr, ptr %8, align 8
  call void @llvm.memcpy.p0.p0.i64(ptr align 4 %22, ptr align 4 %11, i64 20, i1 false)
  br label %27

23:                                               ; preds = %4
  %24 = getelementptr inbounds nuw %"struct.std::array.289", ptr %12, i32 0, i32 0
  call void @llvm.memcpy.p0.p0.i64(ptr align 4 %24, ptr align 4 @constinit.5, i64 20, i1 false)
  %25 = load ptr, ptr %8, align 8
  call void @llvm.memcpy.p0.p0.i64(ptr align 4 %25, ptr align 4 %12, i64 20, i1 false)
  br label %27

26:                                               ; preds = %4
  unreachable

27:                                               ; preds = %23, %20, %17, %14
  ret void
}