; Function Attrs: mustprogress nofree norecurse nosync nounwind willreturn memory(argmem: readwrite) uwtable
define dso_local void @_ZNK4llvm15TargetInstrInfo28getReassociateOperandIndicesERKNS_12MachineInstrEjRSt5arrayIjLm5EE(ptr nocapture nonnull readnone align 8 %0, ptr nocapture nonnull readnone align 8 %1, i32 noundef %2, ptr nocapture noundef nonnull writeonly align 4 dereferenceable(20) %3) unnamed_addr #8 align 2 {
  switch i32 %2, label %9 [
    i32 0, label %5
    i32 1, label %6
    i32 2, label %7
    i32 3, label %8
  ]

5:                                                ; preds = %4
  tail call void @llvm.memcpy.p0.p0.i64(ptr noundef nonnull align 4 dereferenceable(20) %3, ptr noundef nonnull align 4 dereferenceable(20) @constinit, i64 20, i1 false)
  br label %10

6:                                                ; preds = %4
  tail call void @llvm.memcpy.p0.p0.i64(ptr noundef nonnull align 4 dereferenceable(20) %3, ptr noundef nonnull align 4 dereferenceable(20) @constinit.3, i64 20, i1 false)
  br label %10

7:                                                ; preds = %4
  tail call void @llvm.memcpy.p0.p0.i64(ptr noundef nonnull align 4 dereferenceable(20) %3, ptr noundef nonnull align 4 dereferenceable(20) @constinit.4, i64 20, i1 false)
  br label %10

8:                                                ; preds = %4
  tail call void @llvm.memcpy.p0.p0.i64(ptr noundef nonnull align 4 dereferenceable(20) %3, ptr noundef nonnull align 4 dereferenceable(20) @constinit.5, i64 20, i1 false)
  br label %10

9:                                                ; preds = %4
  unreachable

10:                                               ; preds = %8, %7, %6, %5
  ret void
}